target datalayout = "e-m:e-p270:32:32-p271:32:32-p272:64:64-i64:64-i128:128-f80:128-n8:16:32:64-S128"
target triple = "x86_64-pc-linux-gnu"

%struct.PJconsts = type { ptr, ptr, ptr, ptr, ptr, ptr, ptr, ptr, ptr, ptr, ptr, ptr, i32, ptr, ptr, ptr, ptr, ptr, ptr, ptr, ptr, double, double, double, double, double, double, double, double, double, double, double, double, double, double, double, double, double, double, double, double, double, double, i32, i32, i32, i32, i32, i32, i32, i32, i32, i32, i32, ptr, ptr, ptr, ptr, ptr, ptr, double, double, double, double, double, double, double, double, double, double, double, i32, [7 x double], i32, ptr, ptr, double, double, i32, [4 x i8], %"class.std::shared_ptr", i8, double, i8, %"class.std::__cxx11::basic_string", %"class.std::__cxx11::basic_string", %"class.std::__cxx11::basic_string", i8, %"class.std::vector", i32, %"class.std::vector.3", i32, i8, i8, i8, ptr }
%"class.std::shared_ptr" = type { %"class.std::__shared_ptr" }
%"class.std::__shared_ptr" = type { ptr, %"class.std::__shared_count" }
%"class.std::__shared_count" = type { ptr }
%"class.std::__cxx11::basic_string" = type { %"struct.std::__cxx11::basic_string<char>::_Alloc_hider", i64, %union.anon }
%"struct.std::__cxx11::basic_string<char>::_Alloc_hider" = type { ptr }
%union.anon = type { i64, [8 x i8] }
%"class.std::vector" = type { %"struct.std::_Vector_base" }
%"struct.std::_Vector_base" = type { %"struct.std::_Vector_base<osgeo::proj::operation::GridDescription, std::allocator<osgeo::proj::operation::GridDescription>>::_Vector_impl" }
%"struct.std::_Vector_base<osgeo::proj::operation::GridDescription, std::allocator<osgeo::proj::operation::GridDescription>>::_Vector_impl" = type { %"struct.std::_Vector_base<osgeo::proj::operation::GridDescription, std::allocator<osgeo::proj::operation::GridDescription>>::_Vector_impl_data" }
%"struct.std::_Vector_base<osgeo::proj::operation::GridDescription, std::allocator<osgeo::proj::operation::GridDescription>>::_Vector_impl_data" = type { ptr, ptr, ptr }
%"class.std::vector.3" = type { %"struct.std::_Vector_base.4" }
%"struct.std::_Vector_base.4" = type { %"struct.std::_Vector_base<PJCoordOperation, std::allocator<PJCoordOperation>>::_Vector_impl" }
%"struct.std::_Vector_base<PJCoordOperation, std::allocator<PJCoordOperation>>::_Vector_impl" = type { %"struct.std::_Vector_base<PJCoordOperation, std::allocator<PJCoordOperation>>::_Vector_impl_data" }
%"struct.std::_Vector_base<PJCoordOperation, std::allocator<PJCoordOperation>>::_Vector_impl_data" = type { ptr, ptr, ptr }
%union.PROJVALUE = type { double }
%"struct.(anonymous namespace)::pj_ocea" = type { double, double, double, double }

@.str.1 = private unnamed_addr constant [7 x i8] c"talpha\00", align 1
@.str.2 = private unnamed_addr constant [7 x i8] c"ralpha\00", align 1
@.str.3 = private unnamed_addr constant [6 x i8] c"rlonc\00", align 1
@.str.4 = private unnamed_addr constant [7 x i8] c"rlat_1\00", align 1
@.str.5 = private unnamed_addr constant [7 x i8] c"rlat_2\00", align 1
@.str.6 = private unnamed_addr constant [7 x i8] c"rlon_1\00", align 1
@.str.7 = private unnamed_addr constant [7 x i8] c"rlon_2\00", align 1

; Function Attrs: mustprogress uwtable
define hidden noundef ptr @_Z33pj_projection_specific_setup_oceaP8PJconsts(ptr noundef %0) #0 {
  %2 = alloca ptr, align 8
  %3 = alloca ptr, align 8
  %4 = alloca double, align 8
  %5 = alloca double, align 8
  %6 = alloca double, align 8
  %7 = alloca double, align 8
  %8 = alloca double, align 8
  %9 = alloca double, align 8
  %10 = alloca ptr, align 8
  %11 = alloca i32, align 4
  %12 = alloca double, align 8
  %13 = alloca double, align 8
  %14 = alloca %union.PROJVALUE, align 8
  %15 = alloca %union.PROJVALUE, align 8
  %16 = alloca %union.PROJVALUE, align 8
  %17 = alloca %union.PROJVALUE, align 8
  %18 = alloca %union.PROJVALUE, align 8
  %19 = alloca %union.PROJVALUE, align 8
  %20 = alloca %union.PROJVALUE, align 8
  %21 = alloca double, align 8
  %22 = alloca double, align 8
  store ptr %0, ptr %3, align 8, !tbaa !3
  call void @llvm.lifetime.start.p0(i64 8, ptr %4) #8
  call void @llvm.lifetime.start.p0(i64 8, ptr %5) #8
  call void @llvm.lifetime.start.p0(i64 8, ptr %6) #8
  call void @llvm.lifetime.start.p0(i64 8, ptr %7) #8
  call void @llvm.lifetime.start.p0(i64 8, ptr %8) #8
  call void @llvm.lifetime.start.p0(i64 8, ptr %9) #8
  call void @llvm.lifetime.start.p0(i64 8, ptr %10) #8
  %23 = call noalias ptr @calloc(i64 noundef 1, i64 noundef 32) #9
  store ptr %23, ptr %10, align 8, !tbaa !41
  %24 = load ptr, ptr %10, align 8, !tbaa !41
  %25 = icmp eq ptr null, %24
  br i1 %25, label %26, label %29

26:                                               ; preds = %1
  %27 = load ptr, ptr %3, align 8, !tbaa !3
  %28 = call noundef ptr @_Z21pj_default_destructorP8PJconstsi(ptr noundef %27, i32 noundef 4096)
  store ptr %28, ptr %2, align 8
  store i32 1, ptr %11, align 4
  br label %213

29:                                               ; preds = %1
  %30 = load ptr, ptr %10, align 8, !tbaa !41
  %31 = load ptr, ptr %3, align 8, !tbaa !3
  %32 = getelementptr inbounds nuw %struct.PJconsts, ptr %31, i32 0, i32 11
  store ptr %30, ptr %32, align 8, !tbaa !43
  %33 = load ptr, ptr %3, align 8, !tbaa !3
  %34 = getelementptr inbounds nuw %struct.PJconsts, ptr %33, i32 0, i32 66
  %35 = load double, ptr %34, align 8, !tbaa !44
  %36 = fdiv double 1.000000e+00, %35
  %37 = load ptr, ptr %10, align 8, !tbaa !41
  %38 = getelementptr inbounds nuw %"struct.(anonymous namespace)::pj_ocea", ptr %37, i32 0, i32 0
  store double %36, ptr %38, align 8, !tbaa !45
  %39 = load ptr, ptr %3, align 8, !tbaa !3
  %40 = getelementptr inbounds nuw %struct.PJconsts, ptr %39, i32 0, i32 66
  %41 = load double, ptr %40, align 8, !tbaa !44
  %42 = load ptr, ptr %10, align 8, !tbaa !41
  %43 = getelementptr inbounds nuw %"struct.(anonymous namespace)::pj_ocea", ptr %42, i32 0, i32 1
  store double %41, ptr %43, align 8, !tbaa !47
  call void @llvm.lifetime.start.p0(i64 8, ptr %12) #8
  call void @llvm.lifetime.start.p0(i64 8, ptr %13) #8
  call void @llvm.lifetime.start.p0(i64 8, ptr %14) #8
  %44 = load ptr, ptr %3, align 8, !tbaa !3
  %45 = getelementptr inbounds nuw %struct.PJconsts, ptr %44, i32 0, i32 0
  %46 = load ptr, ptr %45, align 8, !tbaa !48
  %47 = load ptr, ptr %3, align 8, !tbaa !3
  %48 = getelementptr inbounds nuw %struct.PJconsts, ptr %47, i32 0, i32 3
  %49 = load ptr, ptr %48, align 8, !tbaa !49
  %50 = call i64 @_Z8pj_paramP6pj_ctxP8ARG_listPKc(ptr noundef %46, ptr noundef %49, ptr noundef @.str.1)
  %51 = getelementptr inbounds nuw %union.PROJVALUE, ptr %14, i32 0, i32 0
  store i64 %50, ptr %51, align 8
  %52 = load i32, ptr %14, align 8, !tbaa !50
  %53 = icmp ne i32 %52, 0
  call void @llvm.lifetime.end.p0(i64 8, ptr %14) #8
  br i1 %53, label %54, label %96

54:                                               ; preds = %29
  call void @llvm.lifetime.start.p0(i64 8, ptr %15) #8
  %55 = load ptr, ptr %3, align 8, !tbaa !3
  %56 = getelementptr inbounds nuw %struct.PJconsts, ptr %55, i32 0, i32 0
  %57 = load ptr, ptr %56, align 8, !tbaa !48
  %58 = load ptr, ptr %3, align 8, !tbaa !3
  %59 = getelementptr inbounds nuw %struct.PJconsts, ptr %58, i32 0, i32 3
  %60 = load ptr, ptr %59, align 8, !tbaa !49
  %61 = call i64 @_Z8pj_paramP6pj_ctxP8ARG_listPKc(ptr noundef %57, ptr noundef %60, ptr noundef @.str.2)
  %62 = getelementptr inbounds nuw %union.PROJVALUE, ptr %15, i32 0, i32 0
  store i64 %61, ptr %62, align 8
  %63 = load double, ptr %15, align 8, !tbaa !50
  %64 = fadd double 0x400921FB54442D18, %63
  store double %64, ptr %9, align 8, !tbaa !51
  call void @llvm.lifetime.end.p0(i64 8, ptr %15) #8
  call void @llvm.lifetime.start.p0(i64 8, ptr %16) #8
  %65 = load ptr, ptr %3, align 8, !tbaa !3
  %66 = getelementptr inbounds nuw %struct.PJconsts, ptr %65, i32 0, i32 0
  %67 = load ptr, ptr %66, align 8, !tbaa !48
  %68 = load ptr, ptr %3, align 8, !tbaa !3
  %69 = getelementptr inbounds nuw %struct.PJconsts, ptr %68, i32 0, i32 3
  %70 = load ptr, ptr %69, align 8, !tbaa !49
  %71 = call i64 @_Z8pj_paramP6pj_ctxP8ARG_listPKc(ptr noundef %67, ptr noundef %70, ptr noundef @.str.3)
  %72 = getelementptr inbounds nuw %union.PROJVALUE, ptr %16, i32 0, i32 0
  store i64 %71, ptr %72, align 8
  %73 = load double, ptr %16, align 8, !tbaa !50
  store double %73, ptr %8, align 8, !tbaa !51
  call void @llvm.lifetime.end.p0(i64 8, ptr %16) #8
  %74 = load double, ptr %9, align 8, !tbaa !51
  %75 = call double @cos(double noundef %74) #8, !tbaa !52
  %76 = fneg double %75
  %77 = load ptr, ptr %3, align 8, !tbaa !3
  %78 = getelementptr inbounds nuw %struct.PJconsts, ptr %77, i32 0, i32 61
  %79 = load double, ptr %78, align 8, !tbaa !53
  %80 = call double @sin(double noundef %79) #8, !tbaa !52
  %81 = fneg double %80
  %82 = load double, ptr %9, align 8, !tbaa !51
  %83 = call double @sin(double noundef %82) #8, !tbaa !52
  %84 = fmul double %81, %83
  %85 = call double @atan2(double noundef %76, double noundef %84) #8, !tbaa !52
  %86 = load double, ptr %8, align 8, !tbaa !51
  %87 = fadd double %85, %86
  store double %87, ptr %12, align 8, !tbaa !51
  %88 = load ptr, ptr %3, align 8, !tbaa !3
  %89 = getelementptr inbounds nuw %struct.PJconsts, ptr %88, i32 0, i32 61
  %90 = load double, ptr %89, align 8, !tbaa !53
  %91 = call double @cos(double noundef %90) #8, !tbaa !52
  %92 = load double, ptr %9, align 8, !tbaa !51
  %93 = call double @sin(double noundef %92) #8, !tbaa !52
  %94 = fmul double %91, %93
  %95 = call double @asin(double noundef %94) #8, !tbaa !52
  store double %95, ptr %13, align 8, !tbaa !51
  br label %193

96:                                               ; preds = %29
  call void @llvm.lifetime.start.p0(i64 8, ptr %17) #8
  %97 = load ptr, ptr %3, align 8, !tbaa !3
  %98 = getelementptr inbounds nuw %struct.PJconsts, ptr %97, i32 0, i32 0
  %99 = load ptr, ptr %98, align 8, !tbaa !48
  %100 = load ptr, ptr %3, align 8, !tbaa !3
  %101 = getelementptr inbounds nuw %struct.PJconsts, ptr %100, i32 0, i32 3
  %102 = load ptr, ptr %101, align 8, !tbaa !49
  %103 = call i64 @_Z8pj_paramP6pj_ctxP8ARG_listPKc(ptr noundef %99, ptr noundef %102, ptr noundef @.str.4)
  %104 = getelementptr inbounds nuw %union.PROJVALUE, ptr %17, i32 0, i32 0
  store i64 %103, ptr %104, align 8
  %105 = load double, ptr %17, align 8, !tbaa !50
  store double %105, ptr %4, align 8, !tbaa !51
  call void @llvm.lifetime.end.p0(i64 8, ptr %17) #8
  call void @llvm.lifetime.start.p0(i64 8, ptr %18) #8
  %106 = load ptr, ptr %3, align 8, !tbaa !3
  %107 = getelementptr inbounds nuw %struct.PJconsts, ptr %106, i32 0, i32 0
  %108 = load ptr, ptr %107, align 8, !tbaa !48
  %109 = load ptr, ptr %3, align 8, !tbaa !3
  %110 = getelementptr inbounds nuw %struct.PJconsts, ptr %109, i32 0, i32 3
  %111 = load ptr, ptr %110, align 8, !tbaa !49
  %112 = call i64 @_Z8pj_paramP6pj_ctxP8ARG_listPKc(ptr noundef %108, ptr noundef %111, ptr noundef @.str.5)
  %113 = getelementptr inbounds nuw %union.PROJVALUE, ptr %18, i32 0, i32 0
  store i64 %112, ptr %113, align 8
  %114 = load double, ptr %18, align 8, !tbaa !50
  store double %114, ptr %5, align 8, !tbaa !51
  call void @llvm.lifetime.end.p0(i64 8, ptr %18) #8
  call void @llvm.lifetime.start.p0(i64 8, ptr %19) #8
  %115 = load ptr, ptr %3, align 8, !tbaa !3
  %116 = getelementptr inbounds nuw %struct.PJconsts, ptr %115, i32 0, i32 0
  %117 = load ptr, ptr %116, align 8, !tbaa !48
  %118 = load ptr, ptr %3, align 8, !tbaa !3
  %119 = getelementptr inbounds nuw %struct.PJconsts, ptr %118, i32 0, i32 3
  %120 = load ptr, ptr %119, align 8, !tbaa !49
  %121 = call i64 @_Z8pj_paramP6pj_ctxP8ARG_listPKc(ptr noundef %117, ptr noundef %120, ptr noundef @.str.6)
  %122 = getelementptr inbounds nuw %union.PROJVALUE, ptr %19, i32 0, i32 0
  store i64 %121, ptr %122, align 8
  %123 = load double, ptr %19, align 8, !tbaa !50
  store double %123, ptr %6, align 8, !tbaa !51
  call void @llvm.lifetime.end.p0(i64 8, ptr %19) #8
  call void @llvm.lifetime.start.p0(i64 8, ptr %20) #8
  %124 = load ptr, ptr %3, align 8, !tbaa !3
  %125 = getelementptr inbounds nuw %struct.PJconsts, ptr %124, i32 0, i32 0
  %126 = load ptr, ptr %125, align 8, !tbaa !48
  %127 = load ptr, ptr %3, align 8, !tbaa !3
  %128 = getelementptr inbounds nuw %struct.PJconsts, ptr %127, i32 0, i32 3
  %129 = load ptr, ptr %128, align 8, !tbaa !49
  %130 = call i64 @_Z8pj_paramP6pj_ctxP8ARG_listPKc(ptr noundef %126, ptr noundef %129, ptr noundef @.str.7)
  %131 = getelementptr inbounds nuw %union.PROJVALUE, ptr %20, i32 0, i32 0
  store i64 %130, ptr %131, align 8
  %132 = load double, ptr %20, align 8, !tbaa !50
  store double %132, ptr %7, align 8, !tbaa !51
  call void @llvm.lifetime.end.p0(i64 8, ptr %20) #8
  %133 = load double, ptr %4, align 8, !tbaa !51
  %134 = call double @cos(double noundef %133) #8, !tbaa !52
  %135 = load double, ptr %5, align 8, !tbaa !51
  %136 = call double @sin(double noundef %135) #8, !tbaa !52
  %137 = fmul double %134, %136
  %138 = load double, ptr %6, align 8, !tbaa !51
  %139 = call double @cos(double noundef %138) #8, !tbaa !52
  %140 = load double, ptr %4, align 8, !tbaa !51
  %141 = call double @sin(double noundef %140) #8, !tbaa !52
  %142 = load double, ptr %5, align 8, !tbaa !51
  %143 = call double @cos(double noundef %142) #8, !tbaa !52
  %144 = fmul double %141, %143
  %145 = load double, ptr %7, align 8, !tbaa !51
  %146 = call double @cos(double noundef %145) #8, !tbaa !52
  %147 = fmul double %144, %146
  %148 = fneg double %147
  %149 = call double @llvm.fmuladd.f64(double %137, double %139, double %148)
  %150 = load double, ptr %4, align 8, !tbaa !51
  %151 = call double @sin(double noundef %150) #8, !tbaa !52
  %152 = load double, ptr %5, align 8, !tbaa !51
  %153 = call double @cos(double noundef %152) #8, !tbaa !52
  %154 = fmul double %151, %153
  %155 = load double, ptr %7, align 8, !tbaa !51
  %156 = call double @sin(double noundef %155) #8, !tbaa !52
  %157 = load double, ptr %4, align 8, !tbaa !51
  %158 = call double @cos(double noundef %157) #8, !tbaa !52
  %159 = load double, ptr %5, align 8, !tbaa !51
  %160 = call double @sin(double noundef %159) #8, !tbaa !52
  %161 = fmul double %158, %160
  %162 = load double, ptr %6, align 8, !tbaa !51
  %163 = call double @sin(double noundef %162) #8, !tbaa !52
  %164 = fmul double %161, %163
  %165 = fneg double %164
  %166 = call double @llvm.fmuladd.f64(double %154, double %156, double %165)
  %167 = call double @atan2(double noundef %149, double noundef %166) #8, !tbaa !52
  store double %167, ptr %12, align 8, !tbaa !51
  %168 = load double, ptr %6, align 8, !tbaa !51
  %169 = fcmp oeq double %168, 0xBFF921FB54442D18
  br i1 %169, label %170, label %173

170:                                              ; preds = %96
  %171 = load double, ptr %12, align 8, !tbaa !51
  %172 = fneg double %171
  store double %172, ptr %12, align 8, !tbaa !51
  br label %173

173:                                              ; preds = %170, %96
  call void @llvm.lifetime.start.p0(i64 8, ptr %21) #8
  %174 = load double, ptr %12, align 8, !tbaa !51
  %175 = load double, ptr %6, align 8, !tbaa !51
  %176 = fsub double %174, %175
  %177 = call double @cos(double noundef %176) #8, !tbaa !52
  store double %177, ptr %21, align 8, !tbaa !51
  call void @llvm.lifetime.start.p0(i64 8, ptr %22) #8
  %178 = load double, ptr %4, align 8, !tbaa !51
  %179 = call double @tan(double noundef %178) #8, !tbaa !52
  store double %179, ptr %22, align 8, !tbaa !51
  %180 = load double, ptr %22, align 8, !tbaa !51
  %181 = fcmp oeq double %180, 0.000000e+00
  br i1 %181, label %182, label %186

182:                                              ; preds = %173
  %183 = load double, ptr %21, align 8, !tbaa !51
  %184 = fcmp oge double %183, 0.000000e+00
  %185 = select i1 %184, double 0xBFF921FB54442D18, double 0x3FF921FB54442D18
  store double %185, ptr %13, align 8, !tbaa !51
  br label %192

186:                                              ; preds = %173
  %187 = load double, ptr %21, align 8, !tbaa !51
  %188 = fneg double %187
  %189 = load double, ptr %22, align 8, !tbaa !51
  %190 = fdiv double %188, %189
  %191 = call double @atan(double noundef %190) #8, !tbaa !52
  store double %191, ptr %13, align 8, !tbaa !51
  br label %192

192:                                              ; preds = %186, %182
  call void @llvm.lifetime.end.p0(i64 8, ptr %22) #8
  call void @llvm.lifetime.end.p0(i64 8, ptr %21) #8
  br label %193

193:                                              ; preds = %192, %54
  %194 = load double, ptr %12, align 8, !tbaa !51
  %195 = fadd double %194, 0x3FF921FB54442D18
  %196 = load ptr, ptr %3, align 8, !tbaa !3
  %197 = getelementptr inbounds nuw %struct.PJconsts, ptr %196, i32 0, i32 60
  store double %195, ptr %197, align 8, !tbaa !54
  %198 = load double, ptr %13, align 8, !tbaa !51
  %199 = call double @cos(double noundef %198) #8, !tbaa !52
  %200 = load ptr, ptr %10, align 8, !tbaa !41
  %201 = getelementptr inbounds nuw %"struct.(anonymous namespace)::pj_ocea", ptr %200, i32 0, i32 3
  store double %199, ptr %201, align 8, !tbaa !55
  %202 = load double, ptr %13, align 8, !tbaa !51
  %203 = call double @sin(double noundef %202) #8, !tbaa !52
  %204 = load ptr, ptr %10, align 8, !tbaa !41
  %205 = getelementptr inbounds nuw %"struct.(anonymous namespace)::pj_ocea", ptr %204, i32 0, i32 2
  store double %203, ptr %205, align 8, !tbaa !56
  %206 = load ptr, ptr %3, align 8, !tbaa !3
  %207 = getelementptr inbounds nuw %struct.PJconsts, ptr %206, i32 0, i32 14
  store ptr @_ZL14ocea_s_inverse5PJ_XYP8PJconsts, ptr %207, align 8, !tbaa !57
  %208 = load ptr, ptr %3, align 8, !tbaa !3
  %209 = getelementptr inbounds nuw %struct.PJconsts, ptr %208, i32 0, i32 13
  store ptr @_ZL14ocea_s_forward5PJ_LPP8PJconsts, ptr %209, align 8, !tbaa !58
  %210 = load ptr, ptr %3, align 8, !tbaa !3
  %211 = getelementptr inbounds nuw %struct.PJconsts, ptr %210, i32 0, i32 27
  store double 0.000000e+00, ptr %211, align 8, !tbaa !59
  %212 = load ptr, ptr %3, align 8, !tbaa !3
  store ptr %212, ptr %2, align 8
  store i32 1, ptr %11, align 4
  call void @llvm.lifetime.end.p0(i64 8, ptr %13) #8
  call void @llvm.lifetime.end.p0(i64 8, ptr %12) #8
  br label %213

213:                                              ; preds = %193, %26
  call void @llvm.lifetime.end.p0(i64 8, ptr %10) #8
  call void @llvm.lifetime.end.p0(i64 8, ptr %9) #8
  call void @llvm.lifetime.end.p0(i64 8, ptr %8) #8
  call void @llvm.lifetime.end.p0(i64 8, ptr %7) #8
  call void @llvm.lifetime.end.p0(i64 8, ptr %6) #8
  call void @llvm.lifetime.end.p0(i64 8, ptr %5) #8
  call void @llvm.lifetime.end.p0(i64 8, ptr %4) #8
  %214 = load ptr, ptr %2, align 8
  ret ptr %214
}