; Function Attrs: mustprogress uwtable
define hidden noundef ptr @_Z33pj_projection_specific_setup_oceaP8PJconsts(ptr noundef %0) local_unnamed_addr #0 {
  %2 = tail call noalias dereferenceable_or_null(32) ptr @calloc(i64 noundef 1, i64 noundef 32) #6
  %3 = icmp eq ptr %2, null
  br i1 %3, label %4, label %6

4:                                                ; preds = %1
  %5 = tail call noundef ptr @_Z21pj_default_destructorP8PJconstsi(ptr noundef %0, i32 noundef 4096)
  br label %102

6:                                                ; preds = %1
  %7 = getelementptr inbounds nuw i8, ptr %0, i64 88
  store ptr %2, ptr %7, align 8, !tbaa !40
  %8 = getelementptr inbounds nuw i8, ptr %0, i64 488
  %9 = load double, ptr %8, align 8, !tbaa !41
  %10 = fdiv double 1.000000e+00, %9
  store double %10, ptr %2, align 8, !tbaa !42
  %11 = getelementptr inbounds nuw i8, ptr %2, i64 8
  store double %9, ptr %11, align 8, !tbaa !44
  %12 = load ptr, ptr %0, align 8, !tbaa !45
  %13 = getelementptr inbounds nuw i8, ptr %0, i64 24
  %14 = load ptr, ptr %13, align 8, !tbaa !46
  %15 = tail call i64 @_Z8pj_paramP6pj_ctxP8ARG_listPKc(ptr noundef %12, ptr noundef %14, ptr noundef nonnull @.str.1)
  %16 = and i64 %15, 4294967295
  %.not = icmp eq i64 %16, 0
  %17 = load ptr, ptr %0, align 8, !tbaa !45
  %18 = load ptr, ptr %13, align 8, !tbaa !46
  br i1 %.not, label %41, label %19

19:                                               ; preds = %6
  %20 = tail call i64 @_Z8pj_paramP6pj_ctxP8ARG_listPKc(ptr noundef %17, ptr noundef %18, ptr noundef nonnull @.str.2)
  %21 = bitcast i64 %20 to double
  %22 = fadd double %21, 0x400921FB54442D18
  %23 = load ptr, ptr %0, align 8, !tbaa !45
  %24 = load ptr, ptr %13, align 8, !tbaa !46
  %25 = tail call i64 @_Z8pj_paramP6pj_ctxP8ARG_listPKc(ptr noundef %23, ptr noundef %24, ptr noundef nonnull @.str.3)
  %26 = bitcast i64 %25 to double
  %27 = tail call double @cos(double noundef %22) #7, !tbaa !47
  %28 = fneg double %27
  %29 = getelementptr inbounds nuw i8, ptr %0, i64 448
  %30 = load double, ptr %29, align 8, !tbaa !48
  %31 = tail call double @sin(double noundef %30) #7, !tbaa !47
  %32 = fneg double %31
  %33 = tail call double @sin(double noundef %22) #7, !tbaa !47
  %34 = fmul double %33, %32
  %35 = tail call double @atan2(double noundef %28, double noundef %34) #7, !tbaa !47
  %36 = fadd double %35, %26
  %37 = tail call double @cos(double noundef %30) #7, !tbaa !47
  %38 = tail call double @sin(double noundef %22) #7, !tbaa !47
  %39 = fmul double %37, %38
  %40 = tail call double @asin(double noundef %39) #7, !tbaa !47
  br label %92

41:                                               ; preds = %6
  %42 = tail call i64 @_Z8pj_paramP6pj_ctxP8ARG_listPKc(ptr noundef %17, ptr noundef %18, ptr noundef nonnull @.str.4)
  %43 = bitcast i64 %42 to double
  %44 = load ptr, ptr %0, align 8, !tbaa !45
  %45 = load ptr, ptr %13, align 8, !tbaa !46
  %46 = tail call i64 @_Z8pj_paramP6pj_ctxP8ARG_listPKc(ptr noundef %44, ptr noundef %45, ptr noundef nonnull @.str.5)
  %47 = bitcast i64 %46 to double
  %48 = load ptr, ptr %0, align 8, !tbaa !45
  %49 = load ptr, ptr %13, align 8, !tbaa !46
  %50 = tail call i64 @_Z8pj_paramP6pj_ctxP8ARG_listPKc(ptr noundef %48, ptr noundef %49, ptr noundef nonnull @.str.6)
  %51 = bitcast i64 %50 to double
  %52 = load ptr, ptr %0, align 8, !tbaa !45
  %53 = load ptr, ptr %13, align 8, !tbaa !46
  %54 = tail call i64 @_Z8pj_paramP6pj_ctxP8ARG_listPKc(ptr noundef %52, ptr noundef %53, ptr noundef nonnull @.str.7)
  %55 = bitcast i64 %54 to double
  %56 = tail call double @cos(double noundef %43) #7, !tbaa !47
  %57 = tail call double @sin(double noundef %47) #7, !tbaa !47
  %58 = fmul double %56, %57
  %59 = tail call double @cos(double noundef %51) #7, !tbaa !47
  %60 = tail call double @sin(double noundef %43) #7, !tbaa !47
  %61 = tail call double @cos(double noundef %47) #7, !tbaa !47
  %62 = fmul double %60, %61
  %63 = tail call double @cos(double noundef %55) #7, !tbaa !47
  %64 = fneg double %63
  %65 = fmul double %62, %64
  %66 = tail call double @llvm.fmuladd.f64(double %58, double %59, double %65)
  %67 = tail call double @sin(double noundef %43) #7, !tbaa !47
  %68 = tail call double @cos(double noundef %47) #7, !tbaa !47
  %69 = fmul double %67, %68
  %70 = tail call double @sin(double noundef %55) #7, !tbaa !47
  %71 = tail call double @cos(double noundef %43) #7, !tbaa !47
  %72 = tail call double @sin(double noundef %47) #7, !tbaa !47
  %73 = fmul double %71, %72
  %74 = tail call double @sin(double noundef %51) #7, !tbaa !47
  %75 = fneg double %74
  %76 = fmul double %73, %75
  %77 = tail call double @llvm.fmuladd.f64(double %69, double %70, double %76)
  %78 = tail call double @atan2(double noundef %66, double noundef %77) #7, !tbaa !47
  %79 = fcmp oeq double %51, 0xBFF921FB54442D18
  %80 = fneg double %78
  %.1 = select i1 %79, double %80, double %78
  %81 = fsub double %.1, %51
  %82 = tail call double @cos(double noundef %81) #7, !tbaa !47
  %83 = tail call double @tan(double noundef %43) #7, !tbaa !47
  %84 = fcmp oeq double %83, 0.000000e+00
  br i1 %84, label %85, label %88

85:                                               ; preds = %41
  %86 = fcmp oge double %82, 0.000000e+00
  %87 = select i1 %86, double 0xBFF921FB54442D18, double 0x3FF921FB54442D18
  br label %92

88:                                               ; preds = %41
  %89 = fneg double %82
  %90 = fdiv double %89, %83
  %91 = tail call double @atan(double noundef %90) #7, !tbaa !47
  br label %92

92:                                               ; preds = %85, %88, %19
  %.067 = phi double [ %40, %19 ], [ %87, %85 ], [ %91, %88 ]
  %.066 = phi double [ %36, %19 ], [ %.1, %85 ], [ %.1, %88 ]
  %93 = fadd double %.066, 0x3FF921FB54442D18
  %94 = getelementptr inbounds nuw i8, ptr %0, i64 440
  store double %93, ptr %94, align 8, !tbaa !49
  %95 = tail call double @cos(double noundef %.067) #7, !tbaa !47
  %96 = getelementptr inbounds nuw i8, ptr %2, i64 24
  store double %95, ptr %96, align 8, !tbaa !50
  %97 = tail call double @sin(double noundef %.067) #7, !tbaa !47
  %98 = getelementptr inbounds nuw i8, ptr %2, i64 16
  store double %97, ptr %98, align 8, !tbaa !51
  %99 = getelementptr inbounds nuw i8, ptr %0, i64 112
  store ptr @_ZL14ocea_s_inverse5PJ_XYP8PJconsts, ptr %99, align 8, !tbaa !52
  %100 = getelementptr inbounds nuw i8, ptr %0, i64 104
  store ptr @_ZL14ocea_s_forward5PJ_LPP8PJconsts, ptr %100, align 8, !tbaa !53
  %101 = getelementptr inbounds nuw i8, ptr %0, i64 216
  store double 0.000000e+00, ptr %101, align 8, !tbaa !54
  br label %102

102:                                              ; preds = %92, %4
  %.0 = phi ptr [ %5, %4 ], [ %0, %92 ]
  ret ptr %.0
}